; Function Attrs: nounwind uwtable
define zeroext i8 @l_Option_beqOption____x40_Init_Data_Option_Basic___hyg_160____at_Lean_Meta_SimpTheorems_addDeclToUnfold___spec__2(ptr noundef %0, ptr noundef %1) local_unnamed_addr #1 {
  %3 = ptrtoint ptr %0 to i64
  %4 = and i64 %3, 1
  %.not.i37 = icmp eq i64 %4, 0
  br i1 %.not.i37, label %8, label %5

5:                                                ; preds = %2
  %6 = lshr i64 %3, 1
  %7 = trunc i64 %6 to i32
  br label %lean_obj_tag.exit

8:                                                ; preds = %2
  %9 = getelementptr i8, ptr %0, i64 4
  %.val.i = load i32, ptr %9, align 4
  %10 = lshr i32 %.val.i, 24
  br label %lean_obj_tag.exit

lean_obj_tag.exit:                                ; preds = %5, %8
  %.0.i = phi i32 [ %7, %5 ], [ %10, %8 ]
  %11 = icmp eq i32 %.0.i, 0
  %12 = ptrtoint ptr %1 to i64
  %13 = and i64 %12, 1
  %.not.i38 = icmp eq i64 %13, 0
  br i1 %11, label %14, label %25

14:                                               ; preds = %lean_obj_tag.exit
  br i1 %.not.i38, label %lean_obj_tag.exit41.thread, label %lean_obj_tag.exit41

lean_obj_tag.exit41:                              ; preds = %14
  %15 = and i64 %12, 8589934590
  %16 = icmp eq i64 %15, 0
  %spec.select = zext i1 %16 to i8
  br label %lean_dec.exit26

lean_obj_tag.exit41.thread:                       ; preds = %14
  %17 = getelementptr i8, ptr %1, i64 4
  %.val.i40 = load i32, ptr %17, align 4
  %18 = icmp ult i32 %.val.i40, 16777216
  br i1 %18, label %lean_dec.exit26, label %.thread

.thread:                                          ; preds = %lean_obj_tag.exit41.thread
  %19 = load i32, ptr %1, align 4, !tbaa !4
  %20 = icmp sgt i32 %19, 1
  br i1 %20, label %21, label %23, !prof !11

21:                                               ; preds = %.thread
  %22 = add nsw i32 %19, -1
  store i32 %22, ptr %1, align 4, !tbaa !4
  br label %lean_dec.exit26

23:                                               ; preds = %.thread
  %.not.i = icmp eq i32 %19, 0
  br i1 %.not.i, label %lean_dec.exit26, label %24

24:                                               ; preds = %23
  tail call void @lean_dec_ref_cold(ptr noundef nonnull %1) #6
  br label %lean_dec.exit26

25:                                               ; preds = %lean_obj_tag.exit
  br i1 %.not.i38, label %29, label %26

26:                                               ; preds = %25
  %27 = lshr i64 %12, 1
  %28 = trunc i64 %27 to i32
  br label %lean_obj_tag.exit45

29:                                               ; preds = %25
  %30 = getelementptr i8, ptr %1, i64 4
  %.val.i44 = load i32, ptr %30, align 4
  %31 = lshr i32 %.val.i44, 24
  br label %lean_obj_tag.exit45

lean_obj_tag.exit45:                              ; preds = %26, %29
  %.0.i43 = phi i32 [ %28, %26 ], [ %31, %29 ]
  %32 = icmp eq i32 %.0.i43, 0
  br i1 %32, label %33, label %41

33:                                               ; preds = %lean_obj_tag.exit45
  br i1 %.not.i37, label %34, label %lean_dec.exit26

34:                                               ; preds = %33
  %35 = load i32, ptr %0, align 4, !tbaa !4
  %36 = icmp sgt i32 %35, 1
  br i1 %36, label %37, label %39, !prof !11

37:                                               ; preds = %34
  %38 = add nsw i32 %35, -1
  store i32 %38, ptr %0, align 4, !tbaa !4
  br label %lean_dec.exit26

39:                                               ; preds = %34
  %.not.i27 = icmp eq i32 %35, 0
  br i1 %.not.i27, label %lean_dec.exit26, label %40

40:                                               ; preds = %39
  tail call void @lean_dec_ref_cold(ptr noundef nonnull %0) #6
  br label %lean_dec.exit26

41:                                               ; preds = %lean_obj_tag.exit45
  %42 = getelementptr inbounds nuw i8, ptr %0, i64 8
  %43 = load ptr, ptr %42, align 8, !tbaa !9
  %44 = ptrtoint ptr %43 to i64
  %45 = and i64 %44, 1
  %.not = icmp eq i64 %45, 0
  br i1 %.not, label %46, label %lean_inc.exit21

46:                                               ; preds = %41
  %.val.i46 = load i32, ptr %43, align 4, !tbaa !4
  %47 = icmp sgt i32 %.val.i46, 0
  br i1 %47, label %48, label %50, !prof !11

48:                                               ; preds = %46
  %49 = add nuw i32 %.val.i46, 1
  store i32 %49, ptr %43, align 4, !tbaa !4
  br label %lean_inc.exit21

50:                                               ; preds = %46
  %.not.i47 = icmp eq i32 %.val.i46, 0
  br i1 %.not.i47, label %lean_inc.exit21, label %51

51:                                               ; preds = %50
  tail call void @lean_inc_ref_cold(ptr noundef nonnull %43) #6
  br label %lean_inc.exit21

lean_inc.exit21:                                  ; preds = %51, %50, %48, %41
  br i1 %.not.i37, label %52, label %lean_dec.exit24

52:                                               ; preds = %lean_inc.exit21
  %53 = load i32, ptr %0, align 4, !tbaa !4
  %54 = icmp sgt i32 %53, 1
  br i1 %54, label %55, label %57, !prof !11

55:                                               ; preds = %52
  %56 = add nsw i32 %53, -1
  store i32 %56, ptr %0, align 4, !tbaa !4
  br label %lean_dec.exit24

57:                                               ; preds = %52
  %.not.i29 = icmp eq i32 %53, 0
  br i1 %.not.i29, label %lean_dec.exit24, label %58

58:                                               ; preds = %57
  tail call void @lean_dec_ref_cold(ptr noundef nonnull %0) #6
  br label %lean_dec.exit24

lean_dec.exit24:                                  ; preds = %58, %57, %55, %lean_inc.exit21
  %59 = getelementptr inbounds nuw i8, ptr %1, i64 8
  %60 = load ptr, ptr %59, align 8, !tbaa !9
  %61 = ptrtoint ptr %60 to i64
  %62 = and i64 %61, 1
  %.not53 = icmp eq i64 %62, 0
  br i1 %.not53, label %63, label %lean_inc.exit

63:                                               ; preds = %lean_dec.exit24
  %.val.i48 = load i32, ptr %60, align 4, !tbaa !4
  %64 = icmp sgt i32 %.val.i48, 0
  br i1 %64, label %65, label %67, !prof !11

65:                                               ; preds = %63
  %66 = add nuw i32 %.val.i48, 1
  store i32 %66, ptr %60, align 4, !tbaa !4
  br label %lean_inc.exit

67:                                               ; preds = %63
  %.not.i49 = icmp eq i32 %.val.i48, 0
  br i1 %.not.i49, label %lean_inc.exit, label %68

68:                                               ; preds = %67
  tail call void @lean_inc_ref_cold(ptr noundef nonnull %60) #6
  br label %lean_inc.exit

lean_inc.exit:                                    ; preds = %68, %67, %65, %lean_dec.exit24
  br i1 %.not.i38, label %69, label %lean_dec.exit23

69:                                               ; preds = %lean_inc.exit
  %70 = load i32, ptr %1, align 4, !tbaa !4
  %71 = icmp sgt i32 %70, 1
  br i1 %71, label %72, label %74, !prof !11

72:                                               ; preds = %69
  %73 = add nsw i32 %70, -1
  store i32 %73, ptr %1, align 4, !tbaa !4
  br label %lean_dec.exit23

74:                                               ; preds = %69
  %.not.i31 = icmp eq i32 %70, 0
  br i1 %.not.i31, label %lean_dec.exit23, label %75

75:                                               ; preds = %74
  tail call void @lean_dec_ref_cold(ptr noundef nonnull %1) #6
  br label %lean_dec.exit23

lean_dec.exit23:                                  ; preds = %75, %74, %72, %lean_inc.exit
  %76 = lshr i64 %44, 1
  %77 = trunc i64 %76 to i8
  br i1 %.not, label %78, label %lean_dec.exit22

78:                                               ; preds = %lean_dec.exit23
  %79 = load i32, ptr %43, align 4, !tbaa !4
  %80 = icmp sgt i32 %79, 1
  br i1 %80, label %81, label %83, !prof !11

81:                                               ; preds = %78
  %82 = add nsw i32 %79, -1
  store i32 %82, ptr %43, align 4, !tbaa !4
  br label %lean_dec.exit22

83:                                               ; preds = %78
  %.not.i33 = icmp eq i32 %79, 0
  br i1 %.not.i33, label %lean_dec.exit22, label %84

84:                                               ; preds = %83
  tail call void @lean_dec_ref_cold(ptr noundef nonnull %43) #6
  br label %lean_dec.exit22

lean_dec.exit22:                                  ; preds = %84, %83, %81, %lean_dec.exit23
  %85 = lshr i64 %61, 1
  %86 = trunc i64 %85 to i8
  br i1 %.not53, label %87, label %lean_dec.exit

87:                                               ; preds = %lean_dec.exit22
  %88 = load i32, ptr %60, align 4, !tbaa !4
  %89 = icmp sgt i32 %88, 1
  br i1 %89, label %90, label %92, !prof !11

90:                                               ; preds = %87
  %91 = add nsw i32 %88, -1
  store i32 %91, ptr %60, align 4, !tbaa !4
  br label %lean_dec.exit

92:                                               ; preds = %87
  %.not.i35 = icmp eq i32 %88, 0
  br i1 %.not.i35, label %lean_dec.exit, label %93

93:                                               ; preds = %92
  tail call void @lean_dec_ref_cold(ptr noundef nonnull %60) #6
  br label %lean_dec.exit

lean_dec.exit:                                    ; preds = %93, %92, %90, %lean_dec.exit22
  %94 = tail call zeroext i8 @l_Lean_beqConstantKind____x40_Lean_Environment___hyg_1230_(i8 noundef zeroext %77, i8 noundef zeroext %86) #6
  br label %lean_dec.exit26

lean_dec.exit26:                                  ; preds = %lean_obj_tag.exit41, %33, %37, %39, %40, %21, %23, %24, %lean_obj_tag.exit41.thread, %lean_dec.exit
  %.0 = phi i8 [ %94, %lean_dec.exit ], [ 1, %lean_obj_tag.exit41.thread ], [ 0, %24 ], [ 0, %23 ], [ 0, %21 ], [ 0, %40 ], [ 0, %39 ], [ 0, %37 ], [ 0, %33 ], [ %spec.select, %lean_obj_tag.exit41 ]
  ret i8 %.0
}